target datalayout = "e-m:e-p270:32:32-p271:32:32-p272:64:64-i64:64-i128:128-f80:128-n8:16:32:64-S128"
target triple = "x86_64-pc-linux-gnu"

%"struct.std::pair.2" = type { i32, i32 }
%"class.llvm::pdb::PDBStringTableBuilder" = type { %"class.llvm::codeview::DebugStringTableSubsection" }
%"class.llvm::codeview::DebugStringTableSubsection" = type <{ %"class.llvm::codeview::DebugSubsection.base", [4 x i8], %"class.llvm::DenseMap", %"class.llvm::StringMap", i32, [4 x i8] }>
%"class.llvm::codeview::DebugSubsection.base" = type <{ ptr, i32 }>
%"class.llvm::DenseMap" = type <{ ptr, i32, i32, i32, [4 x i8] }>
%"class.llvm::StringMap" = type { %"class.llvm::StringMapImpl" }
%"class.llvm::StringMapImpl" = type { ptr, i32, i32, i32, i32 }
%"struct.__gnu_cxx::__ops::_Iter_comp_val" = type { i8 }
%"struct.std::less" = type { i8 }

; Function Attrs: mustprogress nounwind uwtable
define linkonce_odr hidden noundef zeroext i1 @_ZNSt4lessIvE6_S_cmpIRKjS3_EEDcOT_OT0_St17integral_constantIbLb0EE(ptr noundef nonnull align 4 dereferenceable(4) %0, ptr noundef nonnull align 4 dereferenceable(4) %1) #0 comdat align 2 {
  %3 = alloca ptr, align 8
  %4 = alloca ptr, align 8
  store ptr %0, ptr %3, align 8
  store ptr %1, ptr %4, align 8
  %5 = load ptr, ptr %3, align 8
  %6 = load i32, ptr %5, align 4
  %7 = load ptr, ptr %4, align 8
  %8 = load i32, ptr %7, align 4
  %9 = icmp ult i32 %6, %8
  ret i1 %9
}

; Function Attrs: mustprogress nounwind uwtable
define linkonce_odr hidden noundef nonnull align 4 dereferenceable(4) ptr @_ZNSt10__pair_getILm0EE11__const_getIjjEERKT_RKSt4pairIS2_T0_E(ptr noundef nonnull align 4 dereferenceable(8) %0) #0 comdat align 2 {
  %2 = alloca ptr, align 8
  store ptr %0, ptr %2, align 8
  %3 = load ptr, ptr %2, align 8
  %4 = getelementptr inbounds nuw %"struct.std::pair.2", ptr %3, i32 0, i32 0
  ret ptr %4
}

; Function Attrs: mustprogress nounwind uwtable
define linkonce_odr hidden noundef zeroext i1 @_ZNKSt4lessIvEclIRKjS3_EEDTltclsr3stdE7forwardIT_Efp_Eclsr3stdE7forwardIT0_Efp0_EEOS4_OS5_(ptr noundef nonnull align 1 dereferenceable(1) %0, ptr noundef nonnull align 4 dereferenceable(4) %1, ptr noundef nonnull align 4 dereferenceable(4) %2) #0 comdat align 2 {
  %4 = alloca ptr, align 8
  %5 = alloca ptr, align 8
  %6 = alloca ptr, align 8
  store ptr %0, ptr %4, align 8
  store ptr %1, ptr %5, align 8
  store ptr %2, ptr %6, align 8
  %7 = load ptr, ptr %5, align 8
  %8 = load ptr, ptr %6, align 8
  %9 = call noundef zeroext i1 @_ZNSt4lessIvE6_S_cmpIRKjS3_EEDcOT_OT0_St17integral_constantIbLb0EE(ptr noundef nonnull align 4 dereferenceable(4) %7, ptr noundef nonnull align 4 dereferenceable(4) %8)
  ret i1 %9
}

; Function Attrs: mustprogress nounwind uwtable
define linkonce_odr noundef nonnull align 4 dereferenceable(4) ptr @_ZSt3getILm0EjjERKNSt13tuple_elementIXT_ESt4pairIT0_T1_EE4typeERKS4_(ptr noundef nonnull align 4 dereferenceable(8) %0) #0 comdat {
  %2 = alloca ptr, align 8
  store ptr %0, ptr %2, align 8
  %3 = load ptr, ptr %2, align 8
  %4 = call noundef nonnull align 4 dereferenceable(4) ptr @_ZNSt10__pair_getILm0EE11__const_getIjjEERKT_RKSt4pairIS2_T0_E(ptr noundef nonnull align 4 dereferenceable(8) %3) #11
  ret ptr %4
}

; Function Attrs: mustprogress nounwind uwtable
define linkonce_odr hidden noundef zeroext i1 @_ZNK4llvm10less_firstclISt4pairIjjEEEbRKT_S6_(ptr noundef nonnull align 1 dereferenceable(1) %0, ptr noundef nonnull align 4 dereferenceable(8) %1, ptr noundef nonnull align 4 dereferenceable(8) %2) #0 comdat align 2 {
  %4 = alloca ptr, align 8
  %5 = alloca ptr, align 8
  %6 = alloca ptr, align 8
  %7 = alloca %"struct.std::less", align 1
  store ptr %0, ptr %4, align 8
  store ptr %1, ptr %5, align 8
  store ptr %2, ptr %6, align 8
  %8 = load ptr, ptr %5, align 8
  %9 = call noundef nonnull align 4 dereferenceable(4) ptr @_ZSt3getILm0EjjERKNSt13tuple_elementIXT_ESt4pairIT0_T1_EE4typeERKS4_(ptr noundef nonnull align 4 dereferenceable(8) %8) #11
  %10 = load ptr, ptr %6, align 8
  %11 = call noundef nonnull align 4 dereferenceable(4) ptr @_ZSt3getILm0EjjERKNSt13tuple_elementIXT_ESt4pairIT0_T1_EE4typeERKS4_(ptr noundef nonnull align 4 dereferenceable(8) %10) #11
  %12 = call noundef zeroext i1 @_ZNKSt4lessIvEclIRKjS3_EEDTltclsr3stdE7forwardIT_Efp_Eclsr3stdE7forwardIT0_Efp0_EEOS4_OS5_(ptr noundef nonnull align 1 dereferenceable(1) %7, ptr noundef nonnull align 4 dereferenceable(4) %9, ptr noundef nonnull align 4 dereferenceable(4) %11) #11
  ret i1 %12
}

; Function Attrs: mustprogress nounwind uwtable
define linkonce_odr void @_ZSt9__advanceIPKSt4pairIjjElEvRT_T0_St26random_access_iterator_tag(ptr noundef nonnull align 8 dereferenceable(8) %0, i64 noundef %1) #0 comdat {
  %3 = alloca ptr, align 8
  %4 = alloca i64, align 8
  store ptr %0, ptr %3, align 8
  store i64 %1, ptr %4, align 8
  %5 = load i64, ptr %4, align 8
  %6 = call i1 @llvm.is.constant.i64(i64 %5)
  br i1 %6, label %7, label %14

7:                                                ; preds = %2
  %8 = load i64, ptr %4, align 8
  %9 = icmp eq i64 %8, 1
  br i1 %9, label %10, label %14

10:                                               ; preds = %7
  %11 = load ptr, ptr %3, align 8
  %12 = load ptr, ptr %11, align 8
  %13 = getelementptr inbounds %"struct.std::pair.2", ptr %12, i32 1
  store ptr %13, ptr %11, align 8
  br label %30

14:                                               ; preds = %7, %2
  %15 = load i64, ptr %4, align 8
  %16 = call i1 @llvm.is.constant.i64(i64 %15)
  br i1 %16, label %17, label %24

17:                                               ; preds = %14
  %18 = load i64, ptr %4, align 8
  %19 = icmp eq i64 %18, -1
  br i1 %19, label %20, label %24

20:                                               ; preds = %17
  %21 = load ptr, ptr %3, align 8
  %22 = load ptr, ptr %21, align 8
  %23 = getelementptr inbounds %"struct.std::pair.2", ptr %22, i32 -1
  store ptr %23, ptr %21, align 8
  br label %29

24:                                               ; preds = %17, %14
  %25 = load i64, ptr %4, align 8
  %26 = load ptr, ptr %3, align 8
  %27 = load ptr, ptr %26, align 8
  %28 = getelementptr inbounds %"struct.std::pair.2", ptr %27, i64 %25
  store ptr %28, ptr %26, align 8
  br label %29

29:                                               ; preds = %24, %20
  br label %30

30:                                               ; preds = %29, %10
  ret void
}

; Function Attrs: mustprogress nounwind uwtable
define linkonce_odr noundef i64 @_ZSt10__distanceIPKSt4pairIjjEENSt15iterator_traitsIT_E15difference_typeES5_S5_St26random_access_iterator_tag(ptr noundef %0, ptr noundef %1) #0 comdat {
  %3 = alloca ptr, align 8
  %4 = alloca ptr, align 8
  store ptr %0, ptr %3, align 8
  store ptr %1, ptr %4, align 8
  %5 = load ptr, ptr %4, align 8
  %6 = load ptr, ptr %3, align 8
  %7 = ptrtoint ptr %5 to i64
  %8 = ptrtoint ptr %6 to i64
  %9 = sub i64 %7, %8
  %10 = sdiv exact i64 %9, 8
  ret i64 %10
}

; Function Attrs: mustprogress nounwind uwtable
define linkonce_odr void @_ZSt19__iterator_categoryIPKSt4pairIjjEENSt15iterator_traitsIT_E17iterator_categoryERKS5_(ptr noundef nonnull align 8 dereferenceable(8) %0) #0 comdat {
  %2 = alloca ptr, align 8
  store ptr %0, ptr %2, align 8
  ret void
}

; Function Attrs: mustprogress nounwind uwtable
define linkonce_odr hidden noundef zeroext i1 @_ZN9__gnu_cxx5__ops14_Iter_comp_valIN4llvm10less_firstEEclIPKSt4pairIjjES8_EEbT_RT0_(ptr noundef nonnull align 1 dereferenceable(1) %0, ptr noundef %1, ptr noundef nonnull align 4 dereferenceable(8) %2) #0 comdat align 2 {
  %4 = alloca ptr, align 8
  %5 = alloca ptr, align 8
  %6 = alloca ptr, align 8
  store ptr %0, ptr %4, align 8
  store ptr %1, ptr %5, align 8
  store ptr %2, ptr %6, align 8
  %7 = load ptr, ptr %4, align 8
  %8 = load ptr, ptr %5, align 8
  %9 = load ptr, ptr %6, align 8
  %10 = call noundef zeroext i1 @_ZNK4llvm10less_firstclISt4pairIjjEEEbRKT_S6_(ptr noundef nonnull align 1 dereferenceable(1) %7, ptr noundef nonnull align 4 dereferenceable(8) %8, ptr noundef nonnull align 4 dereferenceable(8) %9)
  ret i1 %10
}

; Function Attrs: mustprogress nounwind uwtable
define linkonce_odr void @_ZSt7advanceIPKSt4pairIjjElEvRT_T0_(ptr noundef nonnull align 8 dereferenceable(8) %0, i64 noundef %1) #0 comdat {
  %3 = alloca ptr, align 8
  %4 = alloca i64, align 8
  %5 = alloca i64, align 8
  store ptr %0, ptr %3, align 8
  store i64 %1, ptr %4, align 8
  %6 = load i64, ptr %4, align 8
  store i64 %6, ptr %5, align 8
  %7 = load ptr, ptr %3, align 8
  %8 = load i64, ptr %5, align 8
  %9 = load ptr, ptr %3, align 8
  call void @_ZSt19__iterator_categoryIPKSt4pairIjjEENSt15iterator_traitsIT_E17iterator_categoryERKS5_(ptr noundef nonnull align 8 dereferenceable(8) %9)
  call void @_ZSt9__advanceIPKSt4pairIjjElEvRT_T0_St26random_access_iterator_tag(ptr noundef nonnull align 8 dereferenceable(8) %7, i64 noundef %8)
  ret void
}

; Function Attrs: mustprogress nounwind uwtable
define linkonce_odr noundef i64 @_ZSt8distanceIPKSt4pairIjjEENSt15iterator_traitsIT_E15difference_typeES5_S5_(ptr noundef %0, ptr noundef %1) #0 comdat {
  %3 = alloca ptr, align 8
  %4 = alloca ptr, align 8
  store ptr %0, ptr %3, align 8
  store ptr %1, ptr %4, align 8
  %5 = load ptr, ptr %3, align 8
  %6 = load ptr, ptr %4, align 8
  call void @_ZSt19__iterator_categoryIPKSt4pairIjjEENSt15iterator_traitsIT_E17iterator_categoryERKS5_(ptr noundef nonnull align 8 dereferenceable(8) %3)
  %7 = call noundef i64 @_ZSt10__distanceIPKSt4pairIjjEENSt15iterator_traitsIT_E15difference_typeES5_S5_St26random_access_iterator_tag(ptr noundef %5, ptr noundef %6)
  ret i64 %7
}

; Function Attrs: mustprogress nounwind uwtable
define linkonce_odr hidden void @_ZN9__gnu_cxx5__ops14_Iter_comp_valIN4llvm10less_firstEEC2ES3_(ptr noundef nonnull align 1 dereferenceable(1) %0) unnamed_addr #0 comdat align 2 {
  %2 = alloca ptr, align 8
  store ptr %0, ptr %2, align 8
  ret void
}

; Function Attrs: mustprogress nounwind uwtable
define linkonce_odr noundef ptr @_ZSt3endIKSt4pairIjjELm52EEPT_RAT0__S3_(ptr noundef nonnull align 4 dereferenceable(416) %0) #0 comdat {
  %2 = alloca ptr, align 8
  store ptr %0, ptr %2, align 8
  %3 = load ptr, ptr %2, align 8
  %4 = getelementptr inbounds [52 x %"struct.std::pair.2"], ptr %3, i64 0, i64 0
  %5 = getelementptr inbounds %"struct.std::pair.2", ptr %4, i64 52
  ret ptr %5
}

; Function Attrs: mustprogress nounwind uwtable
define linkonce_odr noundef ptr @_ZSt5beginIKSt4pairIjjELm52EEPT_RAT0__S3_(ptr noundef nonnull align 4 dereferenceable(416) %0) #0 comdat {
  %2 = alloca ptr, align 8
  store ptr %0, ptr %2, align 8
  %3 = load ptr, ptr %2, align 8
  %4 = getelementptr inbounds [52 x %"struct.std::pair.2"], ptr %3, i64 0, i64 0
  ret ptr %4
}

; Function Attrs: mustprogress nounwind uwtable
define linkonce_odr noundef ptr @_ZSt13__lower_boundIPKSt4pairIjjES1_N9__gnu_cxx5__ops14_Iter_comp_valIN4llvm10less_firstEEEET_SA_SA_RKT0_T1_(ptr noundef %0, ptr noundef %1, ptr noundef nonnull align 4 dereferenceable(8) %2) #0 comdat {
  %4 = alloca %"struct.__gnu_cxx::__ops::_Iter_comp_val", align 1
  %5 = alloca ptr, align 8
  %6 = alloca ptr, align 8
  %7 = alloca ptr, align 8
  %8 = alloca i64, align 8
  %9 = alloca i64, align 8
  %10 = alloca ptr, align 8
  store ptr %0, ptr %5, align 8
  store ptr %1, ptr %6, align 8
  store ptr %2, ptr %7, align 8
  %11 = load ptr, ptr %5, align 8
  %12 = load ptr, ptr %6, align 8
  %13 = call noundef i64 @_ZSt8distanceIPKSt4pairIjjEENSt15iterator_traitsIT_E15difference_typeES5_S5_(ptr noundef %11, ptr noundef %12)
  store i64 %13, ptr %8, align 8
  br label %14

14:                                               ; preds = %35, %3
  %15 = load i64, ptr %8, align 8
  %16 = icmp sgt i64 %15, 0
  br i1 %16, label %17, label %36

17:                                               ; preds = %14
  %18 = load i64, ptr %8, align 8
  %19 = ashr i64 %18, 1
  store i64 %19, ptr %9, align 8
  %20 = load ptr, ptr %5, align 8
  store ptr %20, ptr %10, align 8
  %21 = load i64, ptr %9, align 8
  call void @_ZSt7advanceIPKSt4pairIjjElEvRT_T0_(ptr noundef nonnull align 8 dereferenceable(8) %10, i64 noundef %21)
  %22 = load ptr, ptr %10, align 8
  %23 = load ptr, ptr %7, align 8
  %24 = call noundef zeroext i1 @_ZN9__gnu_cxx5__ops14_Iter_comp_valIN4llvm10less_firstEEclIPKSt4pairIjjES8_EEbT_RT0_(ptr noundef nonnull align 1 dereferenceable(1) %4, ptr noundef %22, ptr noundef nonnull align 4 dereferenceable(8) %23)
  br i1 %24, label %25, label %33

25:                                               ; preds = %17
  %26 = load ptr, ptr %10, align 8
  store ptr %26, ptr %5, align 8
  %27 = load ptr, ptr %5, align 8
  %28 = getelementptr inbounds %"struct.std::pair.2", ptr %27, i32 1
  store ptr %28, ptr %5, align 8
  %29 = load i64, ptr %8, align 8
  %30 = load i64, ptr %9, align 8
  %31 = sub nsw i64 %29, %30
  %32 = sub nsw i64 %31, 1
  store i64 %32, ptr %8, align 8
  br label %35

33:                                               ; preds = %17
  %34 = load i64, ptr %9, align 8
  store i64 %34, ptr %8, align 8
  br label %35

35:                                               ; preds = %33, %25
  br label %14, !llvm.loop !6

36:                                               ; preds = %14
  %37 = load ptr, ptr %5, align 8
  ret ptr %37
}

; Function Attrs: mustprogress nounwind uwtable
define linkonce_odr hidden void @_ZN9__gnu_cxx5__ops15__iter_comp_valIN4llvm10less_firstEEENS0_14_Iter_comp_valIT_EES5_() #0 comdat {
  %1 = alloca %"struct.__gnu_cxx::__ops::_Iter_comp_val", align 1
  call void @_ZN9__gnu_cxx5__ops14_Iter_comp_valIN4llvm10less_firstEEC2ES3_(ptr noundef nonnull align 1 dereferenceable(1) %1)
  ret void
}

; Function Attrs: mustprogress nounwind uwtable
define linkonce_odr hidden noundef ptr @_ZN4llvm10adl_detail8end_implIRA52_KSt4pairIjjEEEDTcl3endclsr3stdE7forwardIT_Efp_EEEOS7_(ptr noundef nonnull align 4 dereferenceable(416) %0) #0 comdat {
  %2 = alloca ptr, align 8
  store ptr %0, ptr %2, align 8
  %3 = load ptr, ptr %2, align 8
  %4 = call noundef ptr @_ZSt3endIKSt4pairIjjELm52EEPT_RAT0__S3_(ptr noundef nonnull align 4 dereferenceable(416) %3) #11
  ret ptr %4
}

; Function Attrs: mustprogress nounwind uwtable
define linkonce_odr hidden noundef ptr @_ZN4llvm10adl_detail10begin_implIRA52_KSt4pairIjjEEEDTcl5beginclsr3stdE7forwardIT_Efp_EEEOS7_(ptr noundef nonnull align 4 dereferenceable(416) %0) #0 comdat {
  %2 = alloca ptr, align 8
  store ptr %0, ptr %2, align 8
  %3 = load ptr, ptr %2, align 8
  %4 = call noundef ptr @_ZSt5beginIKSt4pairIjjELm52EEPT_RAT0__S3_(ptr noundef nonnull align 4 dereferenceable(416) %3) #11
  ret ptr %4
}

; Function Attrs: mustprogress nounwind uwtable
define linkonce_odr noundef ptr @_ZSt11lower_boundIPKSt4pairIjjES1_N4llvm10less_firstEET_S6_S6_RKT0_T1_(ptr noundef %0, ptr noundef %1, ptr noundef nonnull align 4 dereferenceable(8) %2) #0 comdat {
  %4 = alloca ptr, align 8
  %5 = alloca ptr, align 8
  %6 = alloca ptr, align 8
  store ptr %0, ptr %4, align 8
  store ptr %1, ptr %5, align 8
  store ptr %2, ptr %6, align 8
  %7 = load ptr, ptr %4, align 8
  %8 = load ptr, ptr %5, align 8
  %9 = load ptr, ptr %6, align 8
  call void @_ZN9__gnu_cxx5__ops15__iter_comp_valIN4llvm10less_firstEEENS0_14_Iter_comp_valIT_EES5_()
  %10 = call noundef ptr @_ZSt13__lower_boundIPKSt4pairIjjES1_N9__gnu_cxx5__ops14_Iter_comp_valIN4llvm10less_firstEEEET_SA_SA_RKT0_T1_(ptr noundef %7, ptr noundef %8, ptr noundef nonnull align 4 dereferenceable(8) %9)
  ret ptr %10
}

; Function Attrs: mustprogress nounwind uwtable
define linkonce_odr hidden noundef ptr @_ZN4llvm7adl_endIRA52_KSt4pairIjjEEEDTclsr10adl_detailE8end_implclsr3stdE7forwardIT_Efp_EEEOS6_(ptr noundef nonnull align 4 dereferenceable(416) %0) #0 comdat {
  %2 = alloca ptr, align 8
  store ptr %0, ptr %2, align 8
  %3 = load ptr, ptr %2, align 8
  %4 = call noundef ptr @_ZN4llvm10adl_detail8end_implIRA52_KSt4pairIjjEEEDTcl3endclsr3stdE7forwardIT_Efp_EEEOS7_(ptr noundef nonnull align 4 dereferenceable(416) %3)
  ret ptr %4
}

; Function Attrs: mustprogress nounwind uwtable
define linkonce_odr hidden noundef ptr @_ZN4llvm9adl_beginIRA52_KSt4pairIjjEEEDTclsr10adl_detailE10begin_implclsr3stdE7forwardIT_Efp_EEEOS6_(ptr noundef nonnull align 4 dereferenceable(416) %0) #0 comdat {
  %2 = alloca ptr, align 8
  store ptr %0, ptr %2, align 8
  %3 = load ptr, ptr %2, align 8
  %4 = call noundef ptr @_ZN4llvm10adl_detail10begin_implIRA52_KSt4pairIjjEEEDTcl5beginclsr3stdE7forwardIT_Efp_EEEOS7_(ptr noundef nonnull align 4 dereferenceable(416) %3)
  ret ptr %4
}

; Function Attrs: mustprogress nounwind uwtable
define linkonce_odr hidden void @_ZNSt4pairIjjEC2IRjjTnNSt9enable_ifIXaaclsr5_PCCPE22_MoveConstructiblePairIT_T0_EEclsr5_PCCPE30_ImplicitlyMoveConvertiblePairIS4_S5_EEEbE4typeELb1EEEOS4_OS5_(ptr noundef nonnull align 4 dereferenceable(8) %0, ptr noundef nonnull align 4 dereferenceable(4) %1, ptr noundef nonnull align 4 dereferenceable(4) %2) unnamed_addr #0 comdat align 2 {
  %4 = alloca ptr, align 8
  %5 = alloca ptr, align 8
  %6 = alloca ptr, align 8
  store ptr %0, ptr %4, align 8
  store ptr %1, ptr %5, align 8
  store ptr %2, ptr %6, align 8
  %7 = load ptr, ptr %4, align 8
  %8 = getelementptr inbounds nuw %"struct.std::pair.2", ptr %7, i32 0, i32 0
  %9 = load ptr, ptr %5, align 8
  %10 = load i32, ptr %9, align 4
  store i32 %10, ptr %8, align 4
  %11 = getelementptr inbounds nuw %"struct.std::pair.2", ptr %7, i32 0, i32 1
  %12 = load ptr, ptr %6, align 8
  %13 = load i32, ptr %12, align 4
  store i32 %13, ptr %11, align 4
  ret void
}

; Function Attrs: mustprogress nounwind uwtable
define linkonce_odr noundef ptr @_ZN4llvm11lower_boundIRA52_KSt4pairIjjES2_NS_10less_firstEEEDaOT_OT0_T1_(ptr noundef nonnull align 4 dereferenceable(416) %0, ptr noundef nonnull align 4 dereferenceable(8) %1) #0 comdat {
  %3 = alloca ptr, align 8
  %4 = alloca ptr, align 8
  store ptr %0, ptr %3, align 8
  store ptr %1, ptr %4, align 8
  %5 = load ptr, ptr %3, align 8
  %6 = call noundef ptr @_ZN4llvm9adl_beginIRA52_KSt4pairIjjEEEDTclsr10adl_detailE10begin_implclsr3stdE7forwardIT_Efp_EEEOS6_(ptr noundef nonnull align 4 dereferenceable(416) %5)
  %7 = load ptr, ptr %3, align 8
  %8 = call noundef ptr @_ZN4llvm7adl_endIRA52_KSt4pairIjjEEEDTclsr10adl_detailE8end_implclsr3stdE7forwardIT_Efp_EEEOS6_(ptr noundef nonnull align 4 dereferenceable(416) %7)
  %9 = load ptr, ptr %4, align 8
  %10 = call noundef ptr @_ZSt11lower_boundIPKSt4pairIjjES1_N4llvm10less_firstEET_S6_S6_RKT0_T1_(ptr noundef %6, ptr noundef %8, ptr noundef nonnull align 4 dereferenceable(8) %9)
  ret ptr %10
}

; Function Attrs: mustprogress nounwind uwtable
define linkonce_odr i64 @_ZSt9make_pairIRjjESt4pairINSt25__strip_reference_wrapperINSt5decayIT_E4typeEE6__typeENS2_INS3_IT0_E4typeEE6__typeEEOS4_OS9_(ptr noundef nonnull align 4 dereferenceable(4) %0, ptr noundef nonnull align 4 dereferenceable(4) %1) #0 comdat {
  %3 = alloca %"struct.std::pair.2", align 4
  %4 = alloca ptr, align 8
  %5 = alloca ptr, align 8
  store ptr %0, ptr %4, align 8
  store ptr %1, ptr %5, align 8
  %6 = load ptr, ptr %4, align 8
  %7 = load ptr, ptr %5, align 8
  call void @_ZNSt4pairIjjEC2IRjjTnNSt9enable_ifIXaaclsr5_PCCPE22_MoveConstructiblePairIT_T0_EEclsr5_PCCPE30_ImplicitlyMoveConvertiblePairIS4_S5_EEEbE4typeELb1EEEOS4_OS5_(ptr noundef nonnull align 4 dereferenceable(8) %3, ptr noundef nonnull align 4 dereferenceable(4) %6, ptr noundef nonnull align 4 dereferenceable(4) %7)
  %8 = load i64, ptr %3, align 4
  ret i64 %8
}

; Function Attrs: mustprogress nounwind uwtable
define internal noundef i32 @_ZL18computeBucketCountj(i32 noundef %0) #0 {
  %2 = alloca i32, align 4
  %3 = alloca ptr, align 8
  %4 = alloca %"struct.std::pair.2", align 4
  %5 = alloca i32, align 4
  store i32 %0, ptr %2, align 4
  store i32 0, ptr %5, align 4
  %6 = call i64 @_ZSt9make_pairIRjjESt4pairINSt25__strip_reference_wrapperINSt5decayIT_E4typeEE6__typeENS2_INS3_IT0_E4typeEE6__typeEEOS4_OS9_(ptr noundef nonnull align 4 dereferenceable(4) %2, ptr noundef nonnull align 4 dereferenceable(4) %5)
  store i64 %6, ptr %4, align 4
  %7 = call noundef ptr @_ZN4llvm11lower_boundIRA52_KSt4pairIjjES2_NS_10less_firstEEEDaOT_OT0_T1_(ptr noundef nonnull align 4 dereferenceable(416) @_ZZL18computeBucketCountjE16StringsToBuckets, ptr noundef nonnull align 4 dereferenceable(8) %4)
  store ptr %7, ptr %3, align 8
  %8 = load ptr, ptr %3, align 8
  %9 = getelementptr inbounds nuw %"struct.std::pair.2", ptr %8, i32 0, i32 1
  %10 = load i32, ptr %9, align 4
  ret i32 %10
}

; Function Attrs: mustprogress nounwind uwtable
define dso_local noundef i32 @_ZNK4llvm3pdb21PDBStringTableBuilder22calculateHashTableSizeEv(ptr noundef nonnull align 8 dereferenceable(72) %0) #0 align 2 {
  %2 = alloca ptr, align 8
  %3 = alloca i32, align 4
  store ptr %0, ptr %2, align 8
  %4 = load ptr, ptr %2, align 8
  store i32 4, ptr %3, align 4
  %5 = getelementptr inbounds nuw %"class.llvm::pdb::PDBStringTableBuilder", ptr %4, i32 0, i32 0
  %6 = call noundef i32 @_ZNK4llvm8codeview26DebugStringTableSubsection4sizeEv(ptr noundef nonnull align 8 dereferenceable(68) %5)
  %7 = call noundef i32 @_ZL18computeBucketCountj(i32 noundef %6)
  %8 = zext i32 %7 to i64
  %9 = mul i64 4, %8
  %10 = load i32, ptr %3, align 4
  %11 = zext i32 %10 to i64
  %12 = add i64 %11, %9
  %13 = trunc i64 %12 to i32
  store i32 %13, ptr %3, align 4
  %14 = load i32, ptr %3, align 4
  ret i32 %14
}

; Function Attrs: mustprogress nounwind uwtable
define dso_local noundef i32 @_ZNK4llvm3pdb21PDBStringTableBuilder23calculateSerializedSizeEv(ptr noundef nonnull align 8 dereferenceable(72) %0) #0 align 2 {
  %2 = alloca ptr, align 8
  %3 = alloca i32, align 4
  store ptr %0, ptr %2, align 8
  %4 = load ptr, ptr %2, align 8
  store i32 0, ptr %3, align 4
  %5 = load i32, ptr %3, align 4
  %6 = zext i32 %5 to i64
  %7 = add i64 %6, 12
  %8 = trunc i64 %7 to i32
  store i32 %8, ptr %3, align 4
  %9 = getelementptr inbounds nuw %"class.llvm::pdb::PDBStringTableBuilder", ptr %4, i32 0, i32 0
  %10 = call noundef i32 @_ZNK4llvm8codeview26DebugStringTableSubsection23calculateSerializedSizeEv(ptr noundef nonnull align 8 dereferenceable(68) %9)
  %11 = load i32, ptr %3, align 4
  %12 = add i32 %11, %10
  store i32 %12, ptr %3, align 4
  %13 = call noundef i32 @_ZNK4llvm3pdb21PDBStringTableBuilder22calculateHashTableSizeEv(ptr noundef nonnull align 8 dereferenceable(72) %4)
  %14 = load i32, ptr %3, align 4
  %15 = add i32 %14, %13
  store i32 %15, ptr %3, align 4
  %16 = load i32, ptr %3, align 4
  %17 = zext i32 %16 to i64
  %18 = add i64 %17, 4
  %19 = trunc i64 %18 to i32
  store i32 %19, ptr %3, align 4
  %20 = load i32, ptr %3, align 4
  ret i32 %20
}