; Function Attrs: mustprogress nounwind uwtable
define dso_local noundef i32 @_ZNK4llvm3pdb21PDBStringTableBuilder23calculateSerializedSizeEv(ptr noundef nonnull align 8 dereferenceable(72) %0) local_unnamed_addr #1 align 2 {
  %2 = tail call noundef i32 @_ZNK4llvm8codeview26DebugStringTableSubsection23calculateSerializedSizeEv(ptr noundef nonnull align 8 dereferenceable(68) %0) #11
  %3 = tail call noundef i32 @_ZNK4llvm8codeview26DebugStringTableSubsection4sizeEv(ptr noundef nonnull align 8 dereferenceable(68) %0) #11
  br label %_ZSt7advanceIPKSt4pairIjjElEvRT_T0_.exit.i.i.i.i.i

_ZSt7advanceIPKSt4pairIjjElEvRT_T0_.exit.i.i.i.i.i: ; preds = %_ZSt7advanceIPKSt4pairIjjElEvRT_T0_.exit.i.i.i.i.i, %1
  %.017.i.i.i.i.i = phi ptr [ @_ZZL18computeBucketCountjE16StringsToBuckets, %1 ], [ %.1.i.i.i.i.i, %_ZSt7advanceIPKSt4pairIjjElEvRT_T0_.exit.i.i.i.i.i ]
  %.01116.i.i.i.i.i = phi i64 [ 52, %1 ], [ %.112.i.i.i.i.i, %_ZSt7advanceIPKSt4pairIjjElEvRT_T0_.exit.i.i.i.i.i ]
  %4 = lshr i64 %.01116.i.i.i.i.i, 1
  %5 = getelementptr inbounds %"struct.std::pair.2", ptr %.017.i.i.i.i.i, i64 %4
  %6 = load i32, ptr %5, align 4
  %7 = icmp ult i32 %6, %3
  %8 = getelementptr inbounds i8, ptr %5, i64 8
  %9 = xor i64 %4, -1
  %10 = add nsw i64 %.01116.i.i.i.i.i, %9
  %.112.i.i.i.i.i = select i1 %7, i64 %10, i64 %4
  %.1.i.i.i.i.i = select i1 %7, ptr %8, ptr %.017.i.i.i.i.i
  %11 = icmp sgt i64 %.112.i.i.i.i.i, 0
  br i1 %11, label %_ZSt7advanceIPKSt4pairIjjElEvRT_T0_.exit.i.i.i.i.i, label %_ZNK4llvm3pdb21PDBStringTableBuilder22calculateHashTableSizeEv.exit, !llvm.loop !4

_ZNK4llvm3pdb21PDBStringTableBuilder22calculateHashTableSizeEv.exit: ; preds = %_ZSt7advanceIPKSt4pairIjjElEvRT_T0_.exit.i.i.i.i.i
  %12 = getelementptr inbounds nuw i8, ptr %.1.i.i.i.i.i, i64 4
  %13 = load i32, ptr %12, align 4
  %14 = shl i32 %13, 2
  %15 = add i32 %2, 20
  %16 = add i32 %15, %14
  ret i32 %16
}